target datalayout = "e-m:e-p270:32:32-p271:32:32-p272:64:64-i64:64-i128:128-f80:128-n8:16:32:64-S128"
target triple = "x86_64-pc-linux-gnu"

%"class.std::__cxx11::basic_string" = type { %"struct.std::__cxx11::basic_string<char>::_Alloc_hider", i64, %union.anon }
%"struct.std::__cxx11::basic_string<char>::_Alloc_hider" = type { ptr }
%union.anon = type { i64, [8 x i8] }
%class.cmSourceFileLocation = type { ptr, i8, i8, %"class.std::__cxx11::basic_string", %"class.std::__cxx11::basic_string" }

; Function Attrs: mustprogress uwtable
define dso_local void @_ZN20cmSourceFileLocation6UpdateERKS_(ptr noundef nonnull align 8 dereferenceable(80) %0, ptr noundef nonnull align 8 dereferenceable(80) %1) #5 align 2 {
  %3 = alloca ptr, align 8
  %4 = alloca ptr, align 8
  store ptr %0, ptr %3, align 8
  store ptr %1, ptr %4, align 8
  %5 = load ptr, ptr %3, align 8
  %6 = getelementptr inbounds %class.cmSourceFileLocation, ptr %5, i32 0, i32 1
  %7 = load i8, ptr %6, align 8
  %8 = trunc i8 %7 to i1
  br i1 %8, label %9, label %20

9:                                                ; preds = %2
  %10 = load ptr, ptr %4, align 8
  %11 = getelementptr inbounds %class.cmSourceFileLocation, ptr %10, i32 0, i32 1
  %12 = load i8, ptr %11, align 8
  %13 = trunc i8 %12 to i1
  br i1 %13, label %20, label %14

14:                                               ; preds = %9
  %15 = load ptr, ptr %4, align 8
  %16 = getelementptr inbounds %class.cmSourceFileLocation, ptr %15, i32 0, i32 3
  %17 = getelementptr inbounds %class.cmSourceFileLocation, ptr %5, i32 0, i32 3
  %18 = call noundef nonnull align 8 dereferenceable(32) ptr @_ZNSt7__cxx1112basic_stringIcSt11char_traitsIcESaIcEEaSERKS4_(ptr noundef nonnull align 8 dereferenceable(32) %17, ptr noundef nonnull align 8 dereferenceable(32) %16)
  %19 = getelementptr inbounds %class.cmSourceFileLocation, ptr %5, i32 0, i32 1
  store i8 0, ptr %19, align 8
  br label %20

20:                                               ; preds = %14, %9, %2
  %21 = getelementptr inbounds %class.cmSourceFileLocation, ptr %5, i32 0, i32 2
  %22 = load i8, ptr %21, align 1
  %23 = trunc i8 %22 to i1
  br i1 %23, label %24, label %35

24:                                               ; preds = %20
  %25 = load ptr, ptr %4, align 8
  %26 = getelementptr inbounds %class.cmSourceFileLocation, ptr %25, i32 0, i32 2
  %27 = load i8, ptr %26, align 1
  %28 = trunc i8 %27 to i1
  br i1 %28, label %35, label %29

29:                                               ; preds = %24
  %30 = load ptr, ptr %4, align 8
  %31 = getelementptr inbounds %class.cmSourceFileLocation, ptr %30, i32 0, i32 4
  %32 = getelementptr inbounds %class.cmSourceFileLocation, ptr %5, i32 0, i32 4
  %33 = call noundef nonnull align 8 dereferenceable(32) ptr @_ZNSt7__cxx1112basic_stringIcSt11char_traitsIcESaIcEEaSERKS4_(ptr noundef nonnull align 8 dereferenceable(32) %32, ptr noundef nonnull align 8 dereferenceable(32) %31)
  %34 = getelementptr inbounds %class.cmSourceFileLocation, ptr %5, i32 0, i32 2
  store i8 0, ptr %34, align 1
  br label %35

35:                                               ; preds = %29, %24, %20
  ret void
}