; Function Attrs: mustprogress uwtable
define dso_local void @_ZN20cmSourceFileLocation6UpdateERKS_(ptr noundef nonnull align 8 dereferenceable(80) %0, ptr noundef nonnull align 8 dereferenceable(80) %1) local_unnamed_addr #4 align 2 {
  %3 = getelementptr inbounds nuw i8, ptr %0, i64 8
  %4 = load i8, ptr %3, align 8
  %5 = trunc i8 %4 to i1
  br i1 %5, label %6, label %14

6:                                                ; preds = %2
  %7 = getelementptr inbounds nuw i8, ptr %1, i64 8
  %8 = load i8, ptr %7, align 8
  %9 = trunc i8 %8 to i1
  br i1 %9, label %14, label %10

10:                                               ; preds = %6
  %11 = getelementptr inbounds nuw i8, ptr %1, i64 16
  %12 = getelementptr inbounds nuw i8, ptr %0, i64 16
  %13 = tail call noundef nonnull align 8 dereferenceable(32) ptr @_ZNSt7__cxx1112basic_stringIcSt11char_traitsIcESaIcEEaSERKS4_(ptr noundef nonnull align 8 dereferenceable(32) %12, ptr noundef nonnull align 8 dereferenceable(32) %11)
  store i8 0, ptr %3, align 8
  br label %14

14:                                               ; preds = %10, %6, %2
  %15 = getelementptr inbounds nuw i8, ptr %0, i64 9
  %16 = load i8, ptr %15, align 1
  %17 = trunc i8 %16 to i1
  br i1 %17, label %18, label %26

18:                                               ; preds = %14
  %19 = getelementptr inbounds nuw i8, ptr %1, i64 9
  %20 = load i8, ptr %19, align 1
  %21 = trunc i8 %20 to i1
  br i1 %21, label %26, label %22

22:                                               ; preds = %18
  %23 = getelementptr inbounds nuw i8, ptr %1, i64 48
  %24 = getelementptr inbounds nuw i8, ptr %0, i64 48
  %25 = tail call noundef nonnull align 8 dereferenceable(32) ptr @_ZNSt7__cxx1112basic_stringIcSt11char_traitsIcESaIcEEaSERKS4_(ptr noundef nonnull align 8 dereferenceable(32) %24, ptr noundef nonnull align 8 dereferenceable(32) %23)
  store i8 0, ptr %15, align 1
  br label %26

26:                                               ; preds = %22, %18, %14
  ret void
}